; ModuleID = '24/1373.c'
source_filename = "24/1373.c"
target datalayout = "e-m:e-p270:32:32-p271:32:32-p272:64:64-i64:64-f80:128-n8:16:32:64-S128"
target triple = "x86_64-pc-linux-gnu"

@.str = private unnamed_addr constant [7 x i8] c"%s\0A%s\0A\00", align 1

; Function Attrs: noinline nounwind uwtable
define dso_local i32 @main() #0 {
  %1 = alloca i32, align 4
  %2 = alloca [1000 x i8], align 16
  %3 = alloca [50 x [1000 x i8]], align 16
  %4 = alloca i32, align 4
  %5 = alloca i32, align 4
  %6 = alloca i32, align 4
  %7 = alloca i32, align 4
  %8 = alloca i32, align 4
  %9 = alloca i32, align 4
  %10 = alloca i32, align 4
  %11 = alloca i32, align 4
  %12 = alloca i32, align 4
  store i32 0, i32* %1, align 4
  store i32 0, i32* %7, align 4
  store i32 2147483647, i32* %8, align 4
  %13 = getelementptr inbounds [1000 x i8], [1000 x i8]* %2, i64 0, i64 0
  %14 = call i32 (i8*, ...) bitcast (i32 (...)* @gets to i32 (i8*, ...)*)(i8* %13)
  %15 = getelementptr inbounds [1000 x i8], [1000 x i8]* %2, i64 0, i64 0
  %16 = call i64 @strlen(i8* %15) #3
  %17 = trunc i64 %16 to i32
  store i32 %17, i32* %9, align 4
  store i32 0, i32* %10, align 4
  store i32 0, i32* %11, align 4
  store i32 0, i32* %12, align 4
  br label %18

18:                                               ; preds = %75, %0
  %19 = load i32, i32* %12, align 4
  %20 = load i32, i32* %9, align 4
  %21 = add nsw i32 %20, 1
  %22 = icmp slt i32 %19, %21
  br i1 %22, label %23, label %78

23:                                               ; preds = %18
  %24 = load i32, i32* %12, align 4
  %25 = sext i32 %24 to i64
  %26 = getelementptr inbounds [1000 x i8], [1000 x i8]* %2, i64 0, i64 %25
  %27 = load i8, i8* %26, align 1
  %28 = sext i8 %27 to i32
  %29 = icmp ne i32 %28, 32
  br i1 %29, label %30, label %50

30:                                               ; preds = %23
  %31 = load i32, i32* %12, align 4
  %32 = sext i32 %31 to i64
  %33 = getelementptr inbounds [1000 x i8], [1000 x i8]* %2, i64 0, i64 %32
  %34 = load i8, i8* %33, align 1
  %35 = sext i8 %34 to i32
  %36 = icmp ne i32 %35, 0
  br i1 %36, label %37, label %50

37:                                               ; preds = %30
  %38 = load i32, i32* %12, align 4
  %39 = sext i32 %38 to i64
  %40 = getelementptr inbounds [1000 x i8], [1000 x i8]* %2, i64 0, i64 %39
  %41 = load i8, i8* %40, align 1
  %42 = load i32, i32* %10, align 4
  %43 = sext i32 %42 to i64
  %44 = getelementptr inbounds [50 x [1000 x i8]], [50 x [1000 x i8]]* %3, i64 0, i64 %43
  %45 = load i32, i32* %11, align 4
  %46 = sext i32 %45 to i64
  %47 = getelementptr inbounds [1000 x i8], [1000 x i8]* %44, i64 0, i64 %46
  store i8 %41, i8* %47, align 1
  %48 = load i32, i32* %11, align 4
  %49 = add nsw i32 %48, 1
  store i32 %49, i32* %11, align 4
  br label %74

50:                                               ; preds = %30, %23
  %51 = load i32, i32* %12, align 4
  %52 = sext i32 %51 to i64
  %53 = getelementptr inbounds [1000 x i8], [1000 x i8]* %2, i64 0, i64 %52
  %54 = load i8, i8* %53, align 1
  %55 = sext i8 %54 to i32
  %56 = icmp eq i32 %55, 32
  br i1 %56, label %64, label %57

57:                                               ; preds = %50
  %58 = load i32, i32* %12, align 4
  %59 = sext i32 %58 to i64
  %60 = getelementptr inbounds [1000 x i8], [1000 x i8]* %2, i64 0, i64 %59
  %61 = load i8, i8* %60, align 1
  %62 = sext i8 %61 to i32
  %63 = icmp eq i32 %62, 0
  br i1 %63, label %64, label %73

64:                                               ; preds = %57, %50
  %65 = load i32, i32* %10, align 4
  %66 = sext i32 %65 to i64
  %67 = getelementptr inbounds [50 x [1000 x i8]], [50 x [1000 x i8]]* %3, i64 0, i64 %66
  %68 = load i32, i32* %11, align 4
  %69 = sext i32 %68 to i64
  %70 = getelementptr inbounds [1000 x i8], [1000 x i8]* %67, i64 0, i64 %69
  store i8 0, i8* %70, align 1
  %71 = load i32, i32* %10, align 4
  %72 = add nsw i32 %71, 1
  store i32 %72, i32* %10, align 4
  store i32 0, i32* %11, align 4
  br label %73

73:                                               ; preds = %64, %57
  br label %74

74:                                               ; preds = %73, %37
  br label %75

75:                                               ; preds = %74
  %76 = load i32, i32* %12, align 4
  %77 = add nsw i32 %76, 1
  store i32 %77, i32* %12, align 4
  br label %18

78:                                               ; preds = %18
  store i32 0, i32* %12, align 4
  br label %79

79:                                               ; preds = %104, %78
  %80 = load i32, i32* %12, align 4
  %81 = load i32, i32* %10, align 4
  %82 = icmp slt i32 %80, %81
  br i1 %82, label %83, label %107

83:                                               ; preds = %79
  %84 = load i32, i32* %12, align 4
  %85 = sext i32 %84 to i64
  %86 = getelementptr inbounds [50 x [1000 x i8]], [50 x [1000 x i8]]* %3, i64 0, i64 %85
  %87 = getelementptr inbounds [1000 x i8], [1000 x i8]* %86, i64 0, i64 0
  %88 = call i64 @strlen(i8* %87) #3
  %89 = trunc i64 %88 to i32
  store i32 %89, i32* %4, align 4
  %90 = load i32, i32* %4, align 4
  %91 = load i32, i32* %7, align 4
  %92 = icmp sgt i32 %90, %91
  br i1 %92, label %93, label %96

93:                                               ; preds = %83
  %94 = load i32, i32* %12, align 4
  store i32 %94, i32* %5, align 4
  %95 = load i32, i32* %4, align 4
  store i32 %95, i32* %7, align 4
  br label %96

96:                                               ; preds = %93, %83
  %97 = load i32, i32* %4, align 4
  %98 = load i32, i32* %8, align 4
  %99 = icmp slt i32 %97, %98
  br i1 %99, label %100, label %103

100:                                              ; preds = %96
  %101 = load i32, i32* %12, align 4
  store i32 %101, i32* %6, align 4
  %102 = load i32, i32* %4, align 4
  store i32 %102, i32* %8, align 4
  br label %103

103:                                              ; preds = %100, %96
  br label %104

104:                                              ; preds = %103
  %105 = load i32, i32* %12, align 4
  %106 = add nsw i32 %105, 1
  store i32 %106, i32* %12, align 4
  br label %79

107:                                              ; preds = %79
  %108 = load i32, i32* %5, align 4
  %109 = sext i32 %108 to i64
  %110 = getelementptr inbounds [50 x [1000 x i8]], [50 x [1000 x i8]]* %3, i64 0, i64 %109
  %111 = getelementptr inbounds [1000 x i8], [1000 x i8]* %110, i64 0, i64 0
  %112 = load i32, i32* %6, align 4
  %113 = sext i32 %112 to i64
  %114 = getelementptr inbounds [50 x [1000 x i8]], [50 x [1000 x i8]]* %3, i64 0, i64 %113
  %115 = getelementptr inbounds [1000 x i8], [1000 x i8]* %114, i64 0, i64 0
  %116 = call i32 (i8*, ...) @printf(i8* getelementptr inbounds ([7 x i8], [7 x i8]* @.str, i64 0, i64 0), i8* %111, i8* %115)
  ret i32 0
}

declare dso_local i32 @gets(...) #1

; Function Attrs: nounwind readonly
declare dso_local i64 @strlen(i8*) #2

declare dso_local i32 @printf(i8*, ...) #1


!llvm.module.flags = !{!0}
!llvm.ident = !{!1}

!0 = !{i32 1, !"wchar_size", i32 4}
!1 = !{!"clang version 10.0.0-4ubuntu1 "}
